target datalayout = "e-m:e-p270:32:32-p271:32:32-p272:64:64-i64:64-i128:128-f80:128-n8:16:32:64-S128"
target triple = "x86_64-pc-linux-gnu"

%struct.ParseContext_ = type { %struct.TokenData, i32, %union.SourceSpan, %union.SourceSpan, ptr, %struct.Lexer }
%struct.TokenData = type { ptr, i64, %union.anon.86 }
%union.anon.86 = type { %struct.anon.89 }
%struct.anon.89 = type { %struct.Int128_, i8 }
%struct.Int128_ = type { i64, i64 }
%union.SourceSpan = type { i64 }
%struct.Lexer = type { ptr, ptr, ptr, ptr, i32, i32, ptr, ptr, ptr, %struct.TokenData, %union.SourceSpan, i32, i32 }
%struct.VHeader_ = type { i32, i32, [0 x i8] }

@poisoned_type_info = external global ptr, align 8
@.str.82 = private unnamed_addr constant [15 x i8] c"Expected '%s'.\00", align 1

; Function Attrs: nounwind uwtable
define internal ptr @vec_new_(i64 noundef %0, i64 noundef %1) #0 {
  %3 = alloca i64, align 8
  %4 = alloca i64, align 8
  %5 = alloca ptr, align 8
  store i64 %0, ptr %3, align 8
  store i64 %1, ptr %4, align 8
  %6 = load i64, ptr %3, align 8
  %7 = load i64, ptr %4, align 8
  %8 = mul i64 %6, %7
  %9 = add i64 %8, 8
  %10 = call ptr @calloc_arena(i64 noundef %9)
  store ptr %10, ptr %5, align 8
  %11 = load i64, ptr %4, align 8
  %12 = trunc i64 %11 to i32
  %13 = load ptr, ptr %5, align 8
  %14 = getelementptr inbounds %struct.VHeader_, ptr %13, i32 0, i32 1
  store i32 %12, ptr %14, align 4
  %15 = load ptr, ptr %5, align 8
  ret ptr %15
}

; Function Attrs: nounwind uwtable
define internal ptr @expand_(ptr noundef %0, i64 noundef %1) #0 {
  %3 = alloca ptr, align 8
  %4 = alloca i64, align 8
  %5 = alloca ptr, align 8
  %6 = alloca ptr, align 8
  %7 = alloca i64, align 8
  store ptr %0, ptr %3, align 8
  store i64 %1, ptr %4, align 8
  %8 = load ptr, ptr %3, align 8
  %9 = icmp ne ptr %8, null
  br i1 %9, label %13, label %10

10:                                               ; preds = %2
  %11 = load i64, ptr %4, align 8
  %12 = call ptr @vec_new_(i64 noundef %11, i64 noundef 8)
  store ptr %12, ptr %5, align 8
  br label %16

13:                                               ; preds = %2
  %14 = load ptr, ptr %3, align 8
  %15 = getelementptr inbounds %struct.VHeader_, ptr %14, i64 -1
  store ptr %15, ptr %5, align 8
  br label %16

16:                                               ; preds = %13, %10
  %17 = load ptr, ptr %5, align 8
  %18 = getelementptr inbounds %struct.VHeader_, ptr %17, i32 0, i32 0
  %19 = load i32, ptr %18, align 4
  %20 = load ptr, ptr %5, align 8
  %21 = getelementptr inbounds %struct.VHeader_, ptr %20, i32 0, i32 1
  %22 = load i32, ptr %21, align 4
  %23 = icmp eq i32 %19, %22
  br i1 %23, label %24, label %49

24:                                               ; preds = %16
  %25 = load i64, ptr %4, align 8
  %26 = load ptr, ptr %5, align 8
  %27 = getelementptr inbounds %struct.VHeader_, ptr %26, i32 0, i32 1
  %28 = load i32, ptr %27, align 4
  %29 = shl i32 %28, 1
  %30 = zext i32 %29 to i64
  %31 = call ptr @vec_new_(i64 noundef %25, i64 noundef %30)
  store ptr %31, ptr %6, align 8
  %32 = load i64, ptr %4, align 8
  %33 = load ptr, ptr %5, align 8
  %34 = getelementptr inbounds %struct.VHeader_, ptr %33, i32 0, i32 1
  %35 = load i32, ptr %34, align 4
  %36 = zext i32 %35 to i64
  %37 = mul i64 %32, %36
  %38 = add i64 %37, 8
  store i64 %38, ptr %7, align 8
  %39 = load ptr, ptr %6, align 8
  %40 = load ptr, ptr %5, align 8
  %41 = load i64, ptr %7, align 8
  call void @llvm.memcpy.p0.p0.i64(ptr align 4 %39, ptr align 4 %40, i64 %41, i1 false)
  %42 = load ptr, ptr %6, align 8
  store ptr %42, ptr %5, align 8
  %43 = load ptr, ptr %5, align 8
  %44 = getelementptr inbounds %struct.VHeader_, ptr %43, i32 0, i32 1
  %45 = load i32, ptr %44, align 4
  %46 = shl i32 %45, 1
  %47 = load ptr, ptr %6, align 8
  %48 = getelementptr inbounds %struct.VHeader_, ptr %47, i32 0, i32 1
  store i32 %46, ptr %48, align 4
  br label %49

49:                                               ; preds = %24, %16
  %50 = load ptr, ptr %5, align 8
  %51 = getelementptr inbounds %struct.VHeader_, ptr %50, i32 0, i32 0
  %52 = load i32, ptr %51, align 4
  %53 = add i32 %52, 1
  store i32 %53, ptr %51, align 4
  %54 = load ptr, ptr %5, align 8
  %55 = getelementptr inbounds %struct.VHeader_, ptr %54, i64 1
  ret ptr %55
}

; Function Attrs: nounwind uwtable
define dso_local ptr @parse_type(ptr noundef %0) #0 {
  %2 = alloca ptr, align 8
  %3 = alloca ptr, align 8
  %4 = alloca ptr, align 8
  %5 = alloca ptr, align 8
  %6 = alloca ptr, align 8
  store ptr %0, ptr %4, align 8
  %7 = load ptr, ptr %4, align 8
  %8 = call ptr @parse_base_type(ptr noundef %7)
  store ptr %8, ptr %5, align 8
  %9 = load ptr, ptr %5, align 8
  store ptr %9, ptr %2, align 8
  %10 = load ptr, ptr %2, align 8
  %11 = icmp ne ptr %10, null
  br i1 %11, label %12, label %19

12:                                               ; preds = %1
  %13 = load ptr, ptr %2, align 8
  %14 = load i16, ptr %13, align 8
  %15 = lshr i16 %14, 3
  %16 = and i16 %15, 63
  %17 = zext i16 %16 to i32
  %18 = icmp ne i32 %17, 0
  br label %19

19:                                               ; preds = %12, %1
  %20 = phi i1 [ true, %1 ], [ %18, %12 ]
  br i1 %20, label %23, label %21

21:                                               ; preds = %19
  %22 = load ptr, ptr @poisoned_type_info, align 8
  store ptr %22, ptr %3, align 8
  br label %28

23:                                               ; preds = %19
  %24 = load ptr, ptr %5, align 8
  store ptr %24, ptr %6, align 8
  %25 = load ptr, ptr %4, align 8
  %26 = load ptr, ptr %6, align 8
  %27 = call ptr @parse_type_with_base(ptr noundef %25, ptr noundef %26)
  store ptr %27, ptr %3, align 8
  br label %28

28:                                               ; preds = %23, %21
  %29 = load ptr, ptr %3, align 8
  ret ptr %29
}

; Function Attrs: nounwind uwtable
define dso_local zeroext i1 @parse_interface_impls(ptr noundef %0, ptr noundef %1) #0 {
  %3 = alloca ptr, align 8
  %4 = alloca i32, align 4
  %5 = alloca i1, align 1
  %6 = alloca ptr, align 8
  %7 = alloca i32, align 4
  %8 = alloca ptr, align 8
  %9 = alloca i32, align 4
  %10 = alloca ptr, align 8
  %11 = alloca ptr, align 8
  %12 = alloca i1, align 1
  %13 = alloca ptr, align 8
  %14 = alloca ptr, align 8
  %15 = alloca ptr, align 8
  %16 = alloca ptr, align 8
  %17 = alloca ptr, align 8
  %18 = alloca ptr, align 8
  store ptr %0, ptr %13, align 8
  store ptr %1, ptr %14, align 8
  %19 = load ptr, ptr %13, align 8
  %20 = call zeroext i1 @try_consume(ptr noundef %19, i32 noundef 19)
  br i1 %20, label %22, label %21

21:                                               ; preds = %2
  store i1 true, ptr %12, align 1
  br label %95

22:                                               ; preds = %2
  store ptr null, ptr %15, align 8
  br label %23

23:                                               ; preds = %91, %22
  %24 = load ptr, ptr %13, align 8
  %25 = call zeroext i1 @try_consume(ptr noundef %24, i32 noundef 26)
  %26 = xor i1 %25, true
  br i1 %26, label %27, label %92

27:                                               ; preds = %23
  %28 = load ptr, ptr %13, align 8
  %29 = call ptr @parse_type(ptr noundef %28)
  store ptr %29, ptr %16, align 8
  %30 = load ptr, ptr %16, align 8
  store ptr %30, ptr %8, align 8
  %31 = load ptr, ptr %8, align 8
  %32 = icmp ne ptr %31, null
  br i1 %32, label %33, label %40

33:                                               ; preds = %27
  %34 = load ptr, ptr %8, align 8
  %35 = load i16, ptr %34, align 8
  %36 = lshr i16 %35, 3
  %37 = and i16 %36, 63
  %38 = zext i16 %37 to i32
  %39 = icmp ne i32 %38, 0
  br label %40

40:                                               ; preds = %33, %27
  %41 = phi i1 [ true, %27 ], [ %39, %33 ]
  br i1 %41, label %43, label %42

42:                                               ; preds = %40
  store i1 false, ptr %12, align 1
  br label %95

43:                                               ; preds = %40
  %44 = load ptr, ptr %16, align 8
  store ptr %44, ptr %17, align 8
  br label %45

45:                                               ; preds = %43
  %46 = load ptr, ptr %15, align 8
  %47 = call ptr @expand_(ptr noundef %46, i64 noundef 8)
  store ptr %47, ptr %18, align 8
  %48 = load ptr, ptr %18, align 8
  store ptr %48, ptr %15, align 8
  %49 = load ptr, ptr %17, align 8
  %50 = load ptr, ptr %15, align 8
  %51 = load ptr, ptr %15, align 8
  store ptr %51, ptr %10, align 8
  %52 = load ptr, ptr %10, align 8
  %53 = icmp ne ptr %52, null
  br i1 %53, label %55, label %54

54:                                               ; preds = %45
  store i32 0, ptr %9, align 4
  br label %60

55:                                               ; preds = %45
  %56 = load ptr, ptr %10, align 8
  store ptr %56, ptr %11, align 8
  %57 = load ptr, ptr %11, align 8
  %58 = getelementptr inbounds %struct.VHeader_, ptr %57, i64 -1
  %59 = load i32, ptr %58, align 4
  store i32 %59, ptr %9, align 4
  br label %60

60:                                               ; preds = %55, %54
  %61 = load i32, ptr %9, align 4
  %62 = sub i32 %61, 1
  %63 = zext i32 %62 to i64
  %64 = getelementptr inbounds ptr, ptr %50, i64 %63
  store ptr %49, ptr %64, align 8
  br label %65

65:                                               ; preds = %60
  %66 = load ptr, ptr %13, align 8
  %67 = call zeroext i1 @try_consume(ptr noundef %66, i32 noundef 8)
  br i1 %67, label %91, label %68

68:                                               ; preds = %65
  br label %69

69:                                               ; preds = %68
  %70 = load ptr, ptr %13, align 8
  store ptr %70, ptr %6, align 8
  store i32 26, ptr %7, align 4
  %71 = load ptr, ptr %6, align 8
  %72 = load i32, ptr %7, align 4
  store ptr %71, ptr %3, align 8
  store i32 %72, ptr %4, align 4
  %73 = load ptr, ptr %3, align 8
  %74 = getelementptr inbounds %struct.ParseContext_, ptr %73, i32 0, i32 1
  %75 = load i32, ptr %74, align 8
  %76 = load i32, ptr %4, align 4
  %77 = icmp eq i32 %75, %76
  br i1 %77, label %78, label %79

78:                                               ; preds = %69
  store i1 true, ptr %5, align 1
  br label %85

79:                                               ; preds = %69
  %80 = load ptr, ptr %6, align 8
  %81 = getelementptr inbounds %struct.ParseContext_, ptr %80, i32 0, i32 2
  %82 = load i32, ptr %7, align 4
  %83 = call ptr @token_type_to_string(i32 noundef %82) #6
  %84 = load i64, ptr %81, align 8
  call void (i64, ptr, ...) @sema_error_at(i64 %84, ptr noundef @.str.82, ptr noundef %83) #6
  store i1 false, ptr %5, align 1
  br label %85

85:                                               ; preds = %79, %78
  %86 = load i1, ptr %5, align 1
  br i1 %86, label %88, label %87

87:                                               ; preds = %85
  store i1 false, ptr %12, align 1
  br label %95

88:                                               ; preds = %85
  %89 = load ptr, ptr %13, align 8
  call void @advance(ptr noundef %89)
  br label %90

90:                                               ; preds = %88
  br label %92

91:                                               ; preds = %65
  br label %23, !llvm.loop !17

92:                                               ; preds = %90, %23
  %93 = load ptr, ptr %15, align 8
  %94 = load ptr, ptr %14, align 8
  store ptr %93, ptr %94, align 8
  store i1 true, ptr %12, align 1
  br label %95

95:                                               ; preds = %92, %87, %42, %21
  %96 = load i1, ptr %12, align 1
  ret i1 %96
}