; Function Attrs: nounwind uwtable
define dso_local noundef zeroext i1 @parse_interface_impls(ptr noundef %0, ptr nocapture noundef writeonly %1) local_unnamed_addr #0 {
  %3 = tail call zeroext i1 @try_consume(ptr noundef %0, i32 noundef 19) #8
  br i1 %3, label %.preheader, label %.loopexit39

.preheader:                                       ; preds = %2, %40
  %.030 = phi ptr [ %43, %40 ], [ null, %2 ]
  %4 = tail call zeroext i1 @try_consume(ptr noundef %0, i32 noundef 26) #8
  br i1 %4, label %.loopexit, label %5

5:                                                ; preds = %.preheader
  %6 = tail call fastcc ptr @parse_base_type(ptr noundef %0)
  %.not.i = icmp eq ptr %6, null
  br i1 %.not.i, label %.split8.i, label %8

.split8.i:                                        ; preds = %5
  %7 = tail call ptr @parse_type_with_base(ptr noundef %0, ptr noundef null)
  br label %parse_type.exit

8:                                                ; preds = %5
  %9 = load i16, ptr %6, align 8
  %10 = and i16 %9, 504
  %.not10.i = icmp eq i16 %10, 0
  br i1 %.not10.i, label %12, label %.split.i

.split.i:                                         ; preds = %8
  %11 = tail call ptr @parse_type_with_base(ptr noundef %0, ptr noundef nonnull %6)
  br label %parse_type.exit

12:                                               ; preds = %8
  %13 = load ptr, ptr @poisoned_type_info, align 8
  br label %parse_type.exit

parse_type.exit:                                  ; preds = %.split8.i, %.split.i, %12
  %.0.i = phi ptr [ %13, %12 ], [ %11, %.split.i ], [ %7, %.split8.i ]
  %.not = icmp eq ptr %.0.i, null
  br i1 %.not, label %.critedge, label %14

14:                                               ; preds = %parse_type.exit
  %15 = load i16, ptr %.0.i, align 8
  %16 = and i16 %15, 504
  %.not33 = icmp eq i16 %16, 0
  br i1 %.not33, label %.loopexit39, label %.critedge

.critedge:                                        ; preds = %parse_type.exit, %14
  %.not.i37 = icmp eq ptr %.030, null
  br i1 %.not.i37, label %17, label %20

17:                                               ; preds = %.critedge
  %18 = tail call ptr @calloc_arena(i64 noundef 72) #8
  %19 = getelementptr inbounds i8, ptr %18, i64 4
  store i32 8, ptr %19, align 4
  br label %22

20:                                               ; preds = %.critedge
  %21 = getelementptr inbounds i8, ptr %.030, i64 -8
  %.phi.trans.insert.i = getelementptr inbounds i8, ptr %.030, i64 -4
  %.pre.i = load i32, ptr %.phi.trans.insert.i, align 4
  br label %22

22:                                               ; preds = %20, %17
  %23 = phi i32 [ %.pre.i, %20 ], [ 8, %17 ]
  %.0.i38 = phi ptr [ %21, %20 ], [ %18, %17 ]
  %24 = load i32, ptr %.0.i38, align 4
  %25 = icmp eq i32 %24, %23
  br i1 %25, label %26, label %40

26:                                               ; preds = %22
  %27 = getelementptr inbounds i8, ptr %.0.i38, i64 4
  %28 = shl i32 %23, 1
  %29 = zext i32 %28 to i64
  %30 = shl nuw nsw i64 %29, 3
  %31 = or disjoint i64 %30, 8
  %32 = tail call ptr @calloc_arena(i64 noundef %31) #8
  %33 = getelementptr inbounds i8, ptr %32, i64 4
  store i32 %28, ptr %33, align 4
  %34 = load i32, ptr %27, align 4
  %35 = zext i32 %34 to i64
  %36 = shl nuw nsw i64 %35, 3
  %37 = add nuw nsw i64 %36, 8
  tail call void @llvm.memcpy.p0.p0.i64(ptr noundef nonnull align 4 dereferenceable(1) %32, ptr noundef nonnull align 4 dereferenceable(1) %.0.i38, i64 %37, i1 false)
  %38 = load i32, ptr %33, align 4
  %39 = shl i32 %38, 1
  store i32 %39, ptr %33, align 4
  %.pre18.i = load i32, ptr %32, align 4
  br label %40

40:                                               ; preds = %22, %26
  %41 = phi i32 [ %.pre18.i, %26 ], [ %24, %22 ]
  %.1.i = phi ptr [ %32, %26 ], [ %.0.i38, %22 ]
  %42 = add i32 %41, 1
  store i32 %42, ptr %.1.i, align 4
  %43 = getelementptr inbounds i8, ptr %.1.i, i64 8
  %44 = zext i32 %41 to i64
  %45 = getelementptr inbounds ptr, ptr %43, i64 %44
  store ptr %.0.i, ptr %45, align 8
  %46 = tail call zeroext i1 @try_consume(ptr noundef %0, i32 noundef 8) #8
  br i1 %46, label %.preheader, label %47, !llvm.loop !16

47:                                               ; preds = %40
  %48 = getelementptr inbounds i8, ptr %0, i64 40
  %49 = load i32, ptr %48, align 8
  %50 = icmp eq i32 %49, 26
  br i1 %50, label %.critedge36, label %51

51:                                               ; preds = %47
  %52 = getelementptr inbounds i8, ptr %0, i64 48
  %53 = tail call ptr @token_type_to_string(i32 noundef 26) #8
  %54 = load i64, ptr %52, align 8
  tail call void (i64, ptr, ...) @sema_error_at(i64 %54, ptr noundef nonnull @.str.82, ptr noundef %53) #8
  br label %.loopexit39

.critedge36:                                      ; preds = %47
  tail call void @advance(ptr noundef nonnull %0) #8
  br label %.loopexit

.loopexit:                                        ; preds = %.preheader, %.critedge36
  %.1 = phi ptr [ %43, %.critedge36 ], [ %.030, %.preheader ]
  store ptr %.1, ptr %1, align 8
  br label %.loopexit39

.loopexit39:                                      ; preds = %14, %51, %2, %.loopexit
  %.029 = phi i1 [ true, %.loopexit ], [ true, %2 ], [ false, %51 ], [ false, %14 ]
  ret i1 %.029
}